; Function Attrs: mustprogress uwtable
define void @_Z23common_set_adapter_loraP13llama_contextRSt6vectorI24common_adapter_lora_infoSaIS2_EE(ptr noundef %0, ptr noundef nonnull readonly align 8 captures(none) dereferenceable(24) %1) local_unnamed_addr #3 {
  tail call void @llama_clear_adapter_lora(ptr noundef %0)
  %3 = load ptr, ptr %1, align 8, !tbaa !345
  %4 = getelementptr inbounds nuw i8, ptr %1, i64 8
  %5 = load ptr, ptr %4, align 8, !tbaa !345
  %.not11 = icmp eq ptr %3, %5
  br i1 %.not11, label %._crit_edge, label %.lr.ph

._crit_edge:                                      ; preds = %13, %2
  ret void

.lr.ph:                                           ; preds = %2, %13
  %.sroa.08.012 = phi ptr [ %14, %13 ], [ %3, %2 ]
  %6 = getelementptr inbounds nuw i8, ptr %.sroa.08.012, i64 32
  %7 = load float, ptr %6, align 8, !tbaa !364
  %8 = fcmp une float %7, 0.000000e+00
  br i1 %8, label %9, label %13

9:                                                ; preds = %.lr.ph
  %10 = getelementptr inbounds nuw i8, ptr %.sroa.08.012, i64 40
  %11 = load ptr, ptr %10, align 8, !tbaa !350
  %12 = tail call i32 @llama_set_adapter_lora(ptr noundef %0, ptr noundef %11, float noundef %7)
  br label %13

13:                                               ; preds = %9, %.lr.ph
  %14 = getelementptr inbounds nuw i8, ptr %.sroa.08.012, i64 48
  %.not = icmp eq ptr %14, %5
  br i1 %.not, label %._crit_edge, label %.lr.ph
}